target datalayout = "e-m:e-p270:32:32-p271:32:32-p272:64:64-i64:64-i128:128-f80:128-n8:16:32:64-S128"
target triple = "x86_64-pc-linux-gnu"

%struct.timeval = type { i64, i64 }

@plugin_type = dso_local constant [9 x i8] c"gpu/nvml\00", align 1
@.str.137 = private unnamed_addr constant [8 x i8] c"unknown\00", align 1
@.str.138 = private unnamed_addr constant [9 x i8] c"graphics\00", align 1
@.str.139 = private unnamed_addr constant [7 x i8] c"memory\00", align 1
@.str.140 = private unnamed_addr constant [27 x i8] c"%s: Unsupported clock type\00", align 1
@__func__._nvml_get_freq = private unnamed_addr constant [15 x i8] c"_nvml_get_freq\00", align 1
@.str.141 = private unnamed_addr constant [65 x i8] c"%s: %s: nvmlDeviceGetApplicationsClock(%s) took %ld microseconds\00", align 1
@.str.142 = private unnamed_addr constant [43 x i8] c"%s: Failed to get the GPU %s frequency: %s\00", align 1

; Function Attrs: nounwind uwtable
define internal i32 @_nvml_get_freq(ptr noundef %0, i32 noundef %1) #0 {
  %3 = alloca i32, align 4
  %4 = alloca ptr, align 8
  %5 = alloca i32, align 4
  %6 = alloca i32, align 4
  %7 = alloca i32, align 4
  %8 = alloca ptr, align 8
  %9 = alloca %struct.timeval, align 8
  %10 = alloca %struct.timeval, align 8
  %11 = alloca [20 x i8], align 16
  %12 = alloca i64, align 8
  %13 = alloca ptr, align 8
  %14 = alloca i32, align 4
  store ptr %0, ptr %4, align 8
  store i32 %1, ptr %5, align 4
  call void @llvm.lifetime.start.p0(i64 4, ptr %6) #7
  call void @llvm.lifetime.start.p0(i64 4, ptr %7) #7
  store i32 0, ptr %7, align 4
  call void @llvm.lifetime.start.p0(i64 8, ptr %8) #7
  store ptr @.str.137, ptr %8, align 8
  call void @llvm.lifetime.start.p0(i64 16, ptr %9) #7
  call void @llvm.lifetime.start.p0(i64 16, ptr %10) #7
  call void @llvm.lifetime.start.p0(i64 20, ptr %11) #7
  call void @llvm.memset.p0.i64(ptr align 16 %11, i8 0, i64 20, i1 false)
  call void @llvm.lifetime.start.p0(i64 8, ptr %12) #7
  %15 = load i32, ptr %5, align 4
  switch i32 %15, label %18 [
    i32 0, label %16
    i32 2, label %17
  ]

16:                                               ; preds = %2
  store ptr @.str.138, ptr %8, align 8
  br label %20

17:                                               ; preds = %2
  store ptr @.str.139, ptr %8, align 8
  br label %20

18:                                               ; preds = %2
  %19 = call i32 (ptr, ...) @slurm_error(ptr noundef @.str.140, ptr noundef @__func__._nvml_get_freq)
  br label %20

20:                                               ; preds = %18, %17, %16
  %21 = call i32 @gettimeofday(ptr noundef %9, ptr noundef null) #7
  call void @llvm.lifetime.start.p0(i64 8, ptr %13) #7
  store ptr %7, ptr %13, align 8
  %22 = load ptr, ptr %4, align 8
  %23 = load ptr, ptr %22, align 8
  %24 = load i32, ptr %5, align 4
  %25 = load ptr, ptr %13, align 8
  %26 = call i32 @nvmlDeviceGetApplicationsClock(ptr noundef %23, i32 noundef %24, ptr noundef %25)
  store i32 %26, ptr %6, align 4
  br label %27

27:                                               ; preds = %20
  %28 = call i32 @gettimeofday(ptr noundef %10, ptr noundef null) #7
  %29 = getelementptr inbounds [20 x i8], ptr %11, i64 0, i64 0
  call void @slurm_diff_tv_str(ptr noundef %9, ptr noundef %10, ptr noundef %29, i32 noundef 20, ptr noundef null, i64 noundef 0, ptr noundef %12)
  br label %30

30:                                               ; preds = %27
  br label %31

31:                                               ; preds = %30
  br label %32

32:                                               ; preds = %31
  br label %33

33:                                               ; preds = %32
  %34 = call i32 @slurm_get_log_level()
  %35 = icmp sge i32 %34, 7
  br i1 %35, label %36, label %39

36:                                               ; preds = %33
  %37 = load ptr, ptr %8, align 8
  %38 = load i64, ptr %12, align 8
  call void (i32, ptr, ...) @slurm_log_var(i32 noundef 7, ptr noundef @.str.141, ptr noundef @plugin_type, ptr noundef @__func__._nvml_get_freq, ptr noundef %37, i64 noundef %38)
  br label %39

39:                                               ; preds = %36, %33
  br label %40

40:                                               ; preds = %39
  br label %41

41:                                               ; preds = %40
  br label %42

42:                                               ; preds = %41
  br label %43

43:                                               ; preds = %42
  %44 = load i32, ptr %6, align 4
  %45 = icmp ne i32 %44, 0
  br i1 %45, label %46, label %51

46:                                               ; preds = %43
  %47 = load ptr, ptr %8, align 8
  %48 = load i32, ptr %6, align 4
  %49 = call ptr @nvmlErrorString(i32 noundef %48)
  %50 = call i32 (ptr, ...) @slurm_error(ptr noundef @.str.142, ptr noundef @__func__._nvml_get_freq, ptr noundef %47, ptr noundef %49)
  store i32 0, ptr %3, align 4
  store i32 1, ptr %14, align 4
  br label %53

51:                                               ; preds = %43
  %52 = load i32, ptr %7, align 4
  store i32 %52, ptr %3, align 4
  store i32 1, ptr %14, align 4
  br label %53

53:                                               ; preds = %51, %46
  call void @llvm.lifetime.end.p0(i64 8, ptr %13) #7
  call void @llvm.lifetime.end.p0(i64 8, ptr %12) #7
  call void @llvm.lifetime.end.p0(i64 20, ptr %11) #7
  call void @llvm.lifetime.end.p0(i64 16, ptr %10) #7
  call void @llvm.lifetime.end.p0(i64 16, ptr %9) #7
  call void @llvm.lifetime.end.p0(i64 8, ptr %8) #7
  call void @llvm.lifetime.end.p0(i64 4, ptr %7) #7
  call void @llvm.lifetime.end.p0(i64 4, ptr %6) #7
  %54 = load i32, ptr %3, align 4
  ret i32 %54
}