; Function Attrs: nounwind uwtable
define internal fastcc i32 @_nvml_get_freq(ptr noundef nonnull readonly captures(none) %0, i32 noundef range(i32 0, 3) %1) unnamed_addr #0 {
  %3 = alloca i32, align 4
  %4 = alloca %struct.timeval, align 8
  %5 = alloca %struct.timeval, align 8
  %6 = alloca [20 x i8], align 16
  %7 = alloca i64, align 8
  call void @llvm.lifetime.start.p0(i64 4, ptr nonnull %3) #12
  store i32 0, ptr %3, align 4
  call void @llvm.lifetime.start.p0(i64 16, ptr nonnull %4) #12
  call void @llvm.lifetime.start.p0(i64 16, ptr nonnull %5) #12
  call void @llvm.lifetime.start.p0(i64 20, ptr nonnull %6) #12
  call void @llvm.memset.p0.i64(ptr noundef nonnull align 16 dereferenceable(20) %6, i8 0, i64 20, i1 false)
  call void @llvm.lifetime.start.p0(i64 8, ptr nonnull %7) #12
  switch i32 %1, label %9 [
    i32 0, label %11
    i32 2, label %8
  ]

8:                                                ; preds = %2
  br label %11

9:                                                ; preds = %2
  %10 = tail call i32 (ptr, ...) @slurm_error(ptr noundef nonnull @.str.140, ptr noundef nonnull @__func__._nvml_get_freq) #12
  br label %11

11:                                               ; preds = %2, %9, %8
  %.08 = phi ptr [ @.str.137, %9 ], [ @.str.139, %8 ], [ @.str.138, %2 ]
  %12 = call i32 @gettimeofday(ptr noundef nonnull %4, ptr noundef null) #12
  %13 = load ptr, ptr %0, align 8
  %14 = call i32 @nvmlDeviceGetApplicationsClock(ptr noundef %13, i32 noundef %1, ptr noundef nonnull %3) #12
  %15 = call i32 @gettimeofday(ptr noundef nonnull %5, ptr noundef null) #12
  call void @slurm_diff_tv_str(ptr noundef nonnull %4, ptr noundef nonnull %5, ptr noundef nonnull %6, i32 noundef 20, ptr noundef null, i64 noundef 0, ptr noundef nonnull %7) #12
  %16 = call i32 @slurm_get_log_level() #12
  %17 = icmp sgt i32 %16, 6
  br i1 %17, label %18, label %20

18:                                               ; preds = %11
  %19 = load i64, ptr %7, align 8
  call void (i32, ptr, ...) @slurm_log_var(i32 noundef 7, ptr noundef nonnull @.str.141, ptr noundef nonnull @plugin_type, ptr noundef nonnull @__func__._nvml_get_freq, ptr noundef nonnull %.08, i64 noundef %19) #12
  br label %20

20:                                               ; preds = %18, %11
  %.not = icmp eq i32 %14, 0
  br i1 %.not, label %24, label %21

21:                                               ; preds = %20
  %22 = call ptr @nvmlErrorString(i32 noundef %14) #12
  %23 = call i32 (ptr, ...) @slurm_error(ptr noundef nonnull @.str.142, ptr noundef nonnull @__func__._nvml_get_freq, ptr noundef nonnull %.08, ptr noundef %22) #12
  br label %26

24:                                               ; preds = %20
  %25 = load i32, ptr %3, align 4
  br label %26

26:                                               ; preds = %24, %21
  %.0 = phi i32 [ 0, %21 ], [ %25, %24 ]
  call void @llvm.lifetime.end.p0(i64 8, ptr nonnull %7) #12
  call void @llvm.lifetime.end.p0(i64 20, ptr nonnull %6) #12
  call void @llvm.lifetime.end.p0(i64 16, ptr nonnull %5) #12
  call void @llvm.lifetime.end.p0(i64 16, ptr nonnull %4) #12
  call void @llvm.lifetime.end.p0(i64 4, ptr nonnull %3) #12
  ret i32 %.0
}